; ModuleID = '47/1162.c'
source_filename = "47/1162.c"
target datalayout = "e-m:e-p270:32:32-p271:32:32-p272:64:64-i64:64-f80:128-n8:16:32:64-S128"
target triple = "x86_64-pc-linux-gnu"

@.str = private unnamed_addr constant [3 x i8] c"%d\00", align 1
@.str.1 = private unnamed_addr constant [4 x i8] c"%d \00", align 1

; Function Attrs: noinline nounwind uwtable
define dso_local i32 @main() #0 {
  %1 = alloca i32, align 4
  %2 = alloca [100 x i32], align 16
  %3 = alloca i32, align 4
  %4 = alloca i32, align 4
  %5 = alloca i32, align 4
  %6 = alloca i32, align 4
  %7 = alloca i32, align 4
  store i32 0, i32* %1, align 4
  %8 = call i32 (i8*, ...) @__isoc99_scanf(i8* getelementptr inbounds ([3 x i8], [3 x i8]* @.str, i64 0, i64 0), i32* %4)
  store i32 0, i32* %3, align 4
  br label %9

9:                                                ; preds = %18, %0
  %10 = load i32, i32* %3, align 4
  %11 = load i32, i32* %4, align 4
  %12 = icmp slt i32 %10, %11
  br i1 %12, label %13, label %21

13:                                               ; preds = %9
  %14 = load i32, i32* %3, align 4
  %15 = sext i32 %14 to i64
  %16 = getelementptr inbounds [100 x i32], [100 x i32]* %2, i64 0, i64 %15
  %17 = call i32 (i8*, ...) @__isoc99_scanf(i8* getelementptr inbounds ([3 x i8], [3 x i8]* @.str, i64 0, i64 0), i32* %16)
  br label %18

18:                                               ; preds = %13
  %19 = load i32, i32* %3, align 4
  %20 = add nsw i32 %19, 1
  store i32 %20, i32* %3, align 4
  br label %9

21:                                               ; preds = %9
  store i32 0, i32* %5, align 4
  br label %22

22:                                               ; preds = %54, %21
  %23 = load i32, i32* %5, align 4
  %24 = load i32, i32* %4, align 4
  %25 = sdiv i32 %24, 2
  %26 = icmp slt i32 %23, %25
  br i1 %26, label %27, label %57

27:                                               ; preds = %22
  %28 = load i32, i32* %5, align 4
  %29 = sext i32 %28 to i64
  %30 = getelementptr inbounds [100 x i32], [100 x i32]* %2, i64 0, i64 %29
  %31 = load i32, i32* %30, align 4
  store i32 %31, i32* %6, align 4
  %32 = load i32, i32* %4, align 4
  %33 = sub nsw i32 %32, 1
  %34 = load i32, i32* %5, align 4
  %35 = sub nsw i32 %33, %34
  %36 = sext i32 %35 to i64
  %37 = getelementptr inbounds [100 x i32], [100 x i32]* %2, i64 0, i64 %36
  %38 = load i32, i32* %37, align 4
  %39 = load i32, i32* %5, align 4
  %40 = sext i32 %39 to i64
  %41 = getelementptr inbounds [100 x i32], [100 x i32]* %2, i64 0, i64 %40
  store i32 %38, i32* %41, align 4
  %42 = load i32, i32* %6, align 4
  %43 = load i32, i32* %4, align 4
  %44 = sub nsw i32 %43, 1
  %45 = load i32, i32* %5, align 4
  %46 = sub nsw i32 %44, %45
  %47 = sext i32 %46 to i64
  %48 = getelementptr inbounds [100 x i32], [100 x i32]* %2, i64 0, i64 %47
  store i32 %42, i32* %48, align 4
  %49 = load i32, i32* %5, align 4
  %50 = sext i32 %49 to i64
  %51 = getelementptr inbounds [100 x i32], [100 x i32]* %2, i64 0, i64 %50
  %52 = load i32, i32* %51, align 4
  %53 = call i32 (i8*, ...) @printf(i8* getelementptr inbounds ([4 x i8], [4 x i8]* @.str.1, i64 0, i64 0), i32 %52)
  br label %54

54:                                               ; preds = %27
  %55 = load i32, i32* %5, align 4
  %56 = add nsw i32 %55, 1
  store i32 %56, i32* %5, align 4
  br label %22

57:                                               ; preds = %22
  %58 = load i32, i32* %4, align 4
  %59 = sdiv i32 %58, 2
  store i32 %59, i32* %7, align 4
  br label %60

60:                                               ; preds = %71, %57
  %61 = load i32, i32* %7, align 4
  %62 = load i32, i32* %4, align 4
  %63 = sub nsw i32 %62, 1
  %64 = icmp slt i32 %61, %63
  br i1 %64, label %65, label %74

65:                                               ; preds = %60
  %66 = load i32, i32* %7, align 4
  %67 = sext i32 %66 to i64
  %68 = getelementptr inbounds [100 x i32], [100 x i32]* %2, i64 0, i64 %67
  %69 = load i32, i32* %68, align 4
  %70 = call i32 (i8*, ...) @printf(i8* getelementptr inbounds ([4 x i8], [4 x i8]* @.str.1, i64 0, i64 0), i32 %69)
  br label %71

71:                                               ; preds = %65
  %72 = load i32, i32* %7, align 4
  %73 = add nsw i32 %72, 1
  store i32 %73, i32* %7, align 4
  br label %60

74:                                               ; preds = %60
  %75 = load i32, i32* %4, align 4
  %76 = sub nsw i32 %75, 1
  %77 = sext i32 %76 to i64
  %78 = getelementptr inbounds [100 x i32], [100 x i32]* %2, i64 0, i64 %77
  %79 = load i32, i32* %78, align 4
  %80 = call i32 (i8*, ...) @printf(i8* getelementptr inbounds ([3 x i8], [3 x i8]* @.str, i64 0, i64 0), i32 %79)
  ret i32 0
}

declare dso_local i32 @__isoc99_scanf(i8*, ...) #1

declare dso_local i32 @printf(i8*, ...) #1


!llvm.module.flags = !{!0}
!llvm.ident = !{!1}

!0 = !{i32 1, !"wchar_size", i32 4}
!1 = !{!"clang version 10.0.0-4ubuntu1 "}
